target datalayout = "e-m:e-p270:32:32-p271:32:32-p272:64:64-i64:64-i128:128-f80:128-n8:16:32:64-S128"
target triple = "x86_64-pc-linux-gnu"

%struct.evp_cipher_ctx_st = type { ptr, ptr, i32, i32, [16 x i8], [16 x i8], [32 x i8], i32, ptr, i32, i32, i64, ptr, i32, i32, [32 x i8], i64, ptr, ptr }

@.str = private unnamed_addr constant [32 x i8] c"../openssl/crypto/evp/evp_enc.c\00", align 1

; Function Attrs: nounwind uwtable
define void @EVP_CIPHER_CTX_free(ptr noundef %0) #0 {
  %2 = alloca ptr, align 8
  store ptr %0, ptr %2, align 8, !tbaa !3
  %3 = load ptr, ptr %2, align 8, !tbaa !3
  %4 = icmp eq ptr %3, null
  br i1 %4, label %5, label %6

5:                                                ; preds = %1
  br label %10

6:                                                ; preds = %1
  %7 = load ptr, ptr %2, align 8, !tbaa !3
  %8 = call i32 @EVP_CIPHER_CTX_reset(ptr noundef %7)
  %9 = load ptr, ptr %2, align 8, !tbaa !3
  call void @CRYPTO_free(ptr noundef %9, ptr noundef @.str, i32 noundef 89)
  br label %10

10:                                               ; preds = %6, %5
  ret void
}

; Function Attrs: nounwind uwtable
define ptr @EVP_CIPHER_CTX_new() #0 {
  %1 = alloca ptr, align 8
  %2 = alloca ptr, align 8
  %3 = alloca i32, align 4
  call void @llvm.lifetime.start.p0(i64 8, ptr %2) #9
  %4 = call noalias ptr @CRYPTO_zalloc(i64 noundef 192, ptr noundef @.str, i32 noundef 76)
  store ptr %4, ptr %2, align 8, !tbaa !3
  %5 = load ptr, ptr %2, align 8, !tbaa !3
  %6 = icmp eq ptr %5, null
  br i1 %6, label %7, label %8

7:                                                ; preds = %0
  store ptr null, ptr %1, align 8
  store i32 1, ptr %3, align 4
  br label %12

8:                                                ; preds = %0
  %9 = load ptr, ptr %2, align 8, !tbaa !3
  %10 = getelementptr inbounds nuw %struct.evp_cipher_ctx_st, ptr %9, i32 0, i32 10
  store i32 -1, ptr %10, align 4, !tbaa !22
  %11 = load ptr, ptr %2, align 8, !tbaa !3
  store ptr %11, ptr %1, align 8
  store i32 1, ptr %3, align 4
  br label %12

12:                                               ; preds = %8, %7
  call void @llvm.lifetime.end.p0(i64 8, ptr %2) #9
  %13 = load ptr, ptr %1, align 8
  ret ptr %13
}

; Function Attrs: nounwind uwtable
define ptr @EVP_CIPHER_CTX_dup(ptr noundef %0) #0 {
  %2 = alloca ptr, align 8
  %3 = alloca ptr, align 8
  store ptr %0, ptr %2, align 8, !tbaa !3
  call void @llvm.lifetime.start.p0(i64 8, ptr %3) #9
  %4 = call ptr @EVP_CIPHER_CTX_new()
  store ptr %4, ptr %3, align 8, !tbaa !3
  %5 = load ptr, ptr %3, align 8, !tbaa !3
  %6 = icmp ne ptr %5, null
  br i1 %6, label %7, label %14

7:                                                ; preds = %1
  %8 = load ptr, ptr %3, align 8, !tbaa !3
  %9 = load ptr, ptr %2, align 8, !tbaa !3
  %10 = call i32 @EVP_CIPHER_CTX_copy(ptr noundef %8, ptr noundef %9)
  %11 = icmp ne i32 %10, 0
  br i1 %11, label %14, label %12

12:                                               ; preds = %7
  %13 = load ptr, ptr %3, align 8, !tbaa !3
  call void @EVP_CIPHER_CTX_free(ptr noundef %13)
  store ptr null, ptr %3, align 8, !tbaa !3
  br label %14

14:                                               ; preds = %12, %7, %1
  %15 = load ptr, ptr %3, align 8, !tbaa !3
  call void @llvm.lifetime.end.p0(i64 8, ptr %3) #9
  ret ptr %15
}