; Function Attrs: nounwind uwtable
define ptr @EVP_CIPHER_CTX_dup(ptr noundef %0) local_unnamed_addr #0 {
  %2 = tail call noalias ptr @CRYPTO_zalloc(i64 noundef 192, ptr noundef nonnull @.str, i32 noundef 76) #10
  %3 = icmp eq ptr %2, null
  br i1 %3, label %EVP_CIPHER_CTX_new.exit.thread, label %4

4:                                                ; preds = %1
  %5 = getelementptr inbounds nuw i8, ptr %2, i64 108
  store i32 -1, ptr %5, align 4, !tbaa !26
  %6 = tail call i32 @EVP_CIPHER_CTX_copy(ptr noundef nonnull %2, ptr noundef %0)
  %.not6 = icmp eq i32 %6, 0
  br i1 %.not6, label %EVP_CIPHER_CTX_free.exit, label %EVP_CIPHER_CTX_new.exit.thread

EVP_CIPHER_CTX_free.exit:                         ; preds = %4
  %7 = tail call i32 @EVP_CIPHER_CTX_reset(ptr noundef nonnull %2)
  tail call void @CRYPTO_free(ptr noundef nonnull %2, ptr noundef nonnull @.str, i32 noundef 89) #10
  br label %EVP_CIPHER_CTX_new.exit.thread

EVP_CIPHER_CTX_new.exit.thread:                   ; preds = %1, %EVP_CIPHER_CTX_free.exit, %4
  %.0 = phi ptr [ %2, %4 ], [ null, %EVP_CIPHER_CTX_free.exit ], [ null, %1 ]
  ret ptr %.0
}